; Function Attrs: mustprogress nofree norecurse nosync nounwind willreturn memory(readwrite, inaccessiblemem: none) uwtable
define void @_ZN15b2RevoluteJoint11EnableMotorEb(ptr nocapture noundef nonnull align 8 dereferenceable(272) %this, i1 noundef zeroext %flag) local_unnamed_addr #10 align 2 {
entry:
  %m_enableMotor = getelementptr inbounds i8, ptr %this, i64 164
  %0 = load i8, ptr %m_enableMotor, align 4
  %1 = and i8 %0, 1
  %2 = icmp eq i8 %1, 0
  %cmp.not = xor i1 %2, %flag
  br i1 %cmp.not, label %if.end, label %if.then

if.then:                                          ; preds = %entry
  %frombool = zext i1 %flag to i8
  %m_bodyA = getelementptr inbounds i8, ptr %this, i64 96
  %3 = load ptr, ptr %m_bodyA, align 8
  %4 = load i32, ptr %3, align 8
  %cmp.i = icmp eq i32 %4, 0
  br i1 %cmp.i, label %_ZN6b2Body8SetAwakeEb.exit, label %if.end.i

if.end.i:                                         ; preds = %if.then
  %m_flags.i = getelementptr inbounds i8, ptr %3, i64 4
  %5 = load i16, ptr %m_flags.i, align 4
  %m_sleepTime.i = getelementptr inbounds i8, ptr %3, i64 172
  %6 = or i16 %5, 2
  store i16 %6, ptr %m_flags.i, align 4
  store float 0.000000e+00, ptr %m_sleepTime.i, align 4
  br label %_ZN6b2Body8SetAwakeEb.exit

_ZN6b2Body8SetAwakeEb.exit:                       ; preds = %if.then, %if.end.i
  %m_bodyB = getelementptr inbounds i8, ptr %this, i64 104
  %7 = load ptr, ptr %m_bodyB, align 8
  %8 = load i32, ptr %7, align 8
  %cmp.i2 = icmp eq i32 %8, 0
  br i1 %cmp.i2, label %_ZN6b2Body8SetAwakeEb.exit6, label %if.end.i3

if.end.i3:                                        ; preds = %_ZN6b2Body8SetAwakeEb.exit
  %m_flags.i4 = getelementptr inbounds i8, ptr %7, i64 4
  %9 = load i16, ptr %m_flags.i4, align 4
  %m_sleepTime.i5 = getelementptr inbounds i8, ptr %7, i64 172
  %10 = or i16 %9, 2
  store i16 %10, ptr %m_flags.i4, align 4
  store float 0.000000e+00, ptr %m_sleepTime.i5, align 4
  br label %_ZN6b2Body8SetAwakeEb.exit6

_ZN6b2Body8SetAwakeEb.exit6:                      ; preds = %_ZN6b2Body8SetAwakeEb.exit, %if.end.i3
  store i8 %frombool, ptr %m_enableMotor, align 4
  br label %if.end

if.end:                                           ; preds = %_ZN6b2Body8SetAwakeEb.exit6, %entry
  ret void
}